; Function Attrs: mustprogress nofree norecurse nosync nounwind sspstrong willreturn memory(read, inaccessiblemem: none) uwtable
define hidden i64 @rb_yarv_ary_entry_internal(i64 noundef %0, i64 noundef %1) local_unnamed_addr #4 {
  %3 = inttoptr i64 %0 to ptr
  %4 = load i64, ptr %3, align 8, !tbaa !11
  %5 = and i64 %4, 8192
  %.not.i.i = icmp eq i64 %5, 0
  br i1 %.not.i.i, label %10, label %6

6:                                                ; preds = %2
  %7 = lshr i64 %4, 15
  %8 = and i64 %7, 127
  %9 = getelementptr inbounds nuw i8, ptr %3, i64 16
  br label %rb_array_const_ptr.exit.i

10:                                               ; preds = %2
  %11 = getelementptr inbounds nuw i8, ptr %3, i64 16
  %12 = load i64, ptr %11, align 8, !tbaa !14
  %13 = getelementptr inbounds nuw i8, ptr %3, i64 32
  %14 = load ptr, ptr %13, align 8, !tbaa !14
  br label %rb_array_const_ptr.exit.i

rb_array_const_ptr.exit.i:                        ; preds = %10, %6
  %.0.i18.i = phi i64 [ %8, %6 ], [ %12, %10 ]
  %.0.i16.i = phi ptr [ %9, %6 ], [ %14, %10 ]
  %15 = icmp eq i64 %.0.i18.i, 0
  br i1 %15, label %rb_ary_entry_internal.exit, label %16

16:                                               ; preds = %rb_array_const_ptr.exit.i
  %17 = icmp slt i64 %1, 0
  br i1 %17, label %18, label %21

18:                                               ; preds = %16
  %19 = add i64 %.0.i18.i, %1
  %20 = icmp slt i64 %19, 0
  br i1 %20, label %rb_ary_entry_internal.exit, label %22

21:                                               ; preds = %16
  %.not.i = icmp sgt i64 %.0.i18.i, %1
  br i1 %.not.i, label %22, label %rb_ary_entry_internal.exit

22:                                               ; preds = %21, %18
  %.011.i = phi i64 [ %19, %18 ], [ %1, %21 ]
  %23 = getelementptr i64, ptr %.0.i16.i, i64 %.011.i
  %24 = load i64, ptr %23, align 8, !tbaa !15
  br label %rb_ary_entry_internal.exit

rb_ary_entry_internal.exit:                       ; preds = %rb_array_const_ptr.exit.i, %18, %21, %22
  %.0.i = phi i64 [ %24, %22 ], [ 4, %rb_array_const_ptr.exit.i ], [ 4, %18 ], [ 4, %21 ]
  ret i64 %.0.i
}